target datalayout = "e-m:e-p270:32:32-p271:32:32-p272:64:64-i64:64-i128:128-f80:128-n8:16:32:64-S128"
target triple = "x86_64-pc-linux-gnu"

%"struct.vcpkg::LineInfo" = type { i32, ptr }
%"struct.vcpkg::BuildResultCounts" = type { i32, i32, i32, i32, i32, i32, i32, i32, i32 }

@.str = private unnamed_addr constant [123 x i8] c"generated/home/dtcxzyw/WorkSpace/Projects/compilers/llvm-opt-benchmark/bench/vcpkg/vcpkg-tool/src/vcpkg/commands.build.cpp\00", align 1

; Function Attrs: mustprogress uwtable
define dso_local void @_ZN5vcpkg17BuildResultCounts9incrementENS_11BuildResultE(ptr noundef nonnull align 4 dereferenceable(36) %0, i32 noundef %1) #0 align 2 {
  %3 = alloca ptr, align 8
  %4 = alloca i32, align 4
  %5 = alloca %"struct.vcpkg::LineInfo", align 8
  store ptr %0, ptr %3, align 8
  store i32 %1, ptr %4, align 4
  %6 = load ptr, ptr %3, align 8
  %7 = load i32, ptr %4, align 4
  switch i32 %7, label %44 [
    i32 0, label %8
    i32 1, label %12
    i32 2, label %16
    i32 3, label %20
    i32 4, label %24
    i32 5, label %28
    i32 6, label %32
    i32 7, label %36
    i32 8, label %40
  ]

8:                                                ; preds = %2
  %9 = getelementptr inbounds %"struct.vcpkg::BuildResultCounts", ptr %6, i32 0, i32 0
  %10 = load i32, ptr %9, align 4
  %11 = add nsw i32 %10, 1
  store i32 %11, ptr %9, align 4
  br label %47

12:                                               ; preds = %2
  %13 = getelementptr inbounds %"struct.vcpkg::BuildResultCounts", ptr %6, i32 0, i32 1
  %14 = load i32, ptr %13, align 4
  %15 = add nsw i32 %14, 1
  store i32 %15, ptr %13, align 4
  br label %47

16:                                               ; preds = %2
  %17 = getelementptr inbounds %"struct.vcpkg::BuildResultCounts", ptr %6, i32 0, i32 2
  %18 = load i32, ptr %17, align 4
  %19 = add nsw i32 %18, 1
  store i32 %19, ptr %17, align 4
  br label %47

20:                                               ; preds = %2
  %21 = getelementptr inbounds %"struct.vcpkg::BuildResultCounts", ptr %6, i32 0, i32 3
  %22 = load i32, ptr %21, align 4
  %23 = add nsw i32 %22, 1
  store i32 %23, ptr %21, align 4
  br label %47

24:                                               ; preds = %2
  %25 = getelementptr inbounds %"struct.vcpkg::BuildResultCounts", ptr %6, i32 0, i32 4
  %26 = load i32, ptr %25, align 4
  %27 = add nsw i32 %26, 1
  store i32 %27, ptr %25, align 4
  br label %47

28:                                               ; preds = %2
  %29 = getelementptr inbounds %"struct.vcpkg::BuildResultCounts", ptr %6, i32 0, i32 5
  %30 = load i32, ptr %29, align 4
  %31 = add nsw i32 %30, 1
  store i32 %31, ptr %29, align 4
  br label %47

32:                                               ; preds = %2
  %33 = getelementptr inbounds %"struct.vcpkg::BuildResultCounts", ptr %6, i32 0, i32 6
  %34 = load i32, ptr %33, align 4
  %35 = add nsw i32 %34, 1
  store i32 %35, ptr %33, align 4
  br label %47

36:                                               ; preds = %2
  %37 = getelementptr inbounds %"struct.vcpkg::BuildResultCounts", ptr %6, i32 0, i32 7
  %38 = load i32, ptr %37, align 4
  %39 = add nsw i32 %38, 1
  store i32 %39, ptr %37, align 4
  br label %47

40:                                               ; preds = %2
  %41 = getelementptr inbounds %"struct.vcpkg::BuildResultCounts", ptr %6, i32 0, i32 8
  %42 = load i32, ptr %41, align 4
  %43 = add nsw i32 %42, 1
  store i32 %43, ptr %41, align 4
  br label %47

44:                                               ; preds = %2
  %45 = getelementptr inbounds %"struct.vcpkg::LineInfo", ptr %5, i32 0, i32 0
  store i32 1387, ptr %45, align 8
  %46 = getelementptr inbounds %"struct.vcpkg::LineInfo", ptr %5, i32 0, i32 1
  store ptr @.str, ptr %46, align 8
  call void @_ZN5vcpkg6Checks11unreachableERKNS_8LineInfoE(ptr noundef nonnull align 8 dereferenceable(16) %5) #20
  unreachable

47:                                               ; preds = %40, %36, %32, %28, %24, %20, %16, %12, %8
  ret void
}