; Function Attrs: mustprogress uwtable
define dso_local void @_ZN5vcpkg17BuildResultCounts9incrementENS_11BuildResultE(ptr nocapture noundef nonnull align 4 dereferenceable(36) %0, i32 noundef %1) local_unnamed_addr #2 align 2 {
  %3 = alloca %"struct.vcpkg::LineInfo", align 8
  switch i32 %1, label %20 [
    i32 0, label %22
    i32 1, label %4
    i32 2, label %6
    i32 3, label %8
    i32 4, label %10
    i32 5, label %12
    i32 6, label %14
    i32 7, label %16
    i32 8, label %18
  ]

4:                                                ; preds = %2
  %5 = getelementptr inbounds i8, ptr %0, i64 4
  br label %22

6:                                                ; preds = %2
  %7 = getelementptr inbounds i8, ptr %0, i64 8
  br label %22

8:                                                ; preds = %2
  %9 = getelementptr inbounds i8, ptr %0, i64 12
  br label %22

10:                                               ; preds = %2
  %11 = getelementptr inbounds i8, ptr %0, i64 16
  br label %22

12:                                               ; preds = %2
  %13 = getelementptr inbounds i8, ptr %0, i64 20
  br label %22

14:                                               ; preds = %2
  %15 = getelementptr inbounds i8, ptr %0, i64 24
  br label %22

16:                                               ; preds = %2
  %17 = getelementptr inbounds i8, ptr %0, i64 28
  br label %22

18:                                               ; preds = %2
  %19 = getelementptr inbounds i8, ptr %0, i64 32
  br label %22

20:                                               ; preds = %2
  store i32 1387, ptr %3, align 8
  %21 = getelementptr inbounds i8, ptr %3, i64 8
  store ptr @.str, ptr %21, align 8
  call void @_ZN5vcpkg6Checks11unreachableERKNS_8LineInfoE(ptr noundef nonnull align 8 dereferenceable(16) %3) #24
  unreachable

22:                                               ; preds = %2, %18, %16, %14, %12, %10, %8, %6, %4
  %.sink = phi ptr [ %19, %18 ], [ %17, %16 ], [ %15, %14 ], [ %13, %12 ], [ %11, %10 ], [ %9, %8 ], [ %7, %6 ], [ %5, %4 ], [ %0, %2 ]
  %23 = load i32, ptr %.sink, align 4
  %24 = add nsw i32 %23, 1
  store i32 %24, ptr %.sink, align 4
  ret void
}